target datalayout = "e-m:e-p270:32:32-p271:32:32-p272:64:64-i64:64-i128:128-f80:128-n8:16:32:64-S128"
target triple = "x86_64-pc-linux-gnu"

; Function Attrs: inlinehint nounwind uwtable
define internal i32 @split_radix_permutation(i32 noundef %0, i32 noundef %1, i32 noundef %2) #5 {
  %4 = alloca i32, align 4
  %5 = alloca i32, align 4
  %6 = alloca i32, align 4
  %7 = alloca i32, align 4
  store i32 %0, ptr %5, align 4, !tbaa !11
  store i32 %1, ptr %6, align 4, !tbaa !11
  store i32 %2, ptr %7, align 4, !tbaa !11
  %8 = load i32, ptr %6, align 4, !tbaa !11
  %9 = ashr i32 %8, 1
  store i32 %9, ptr %6, align 4, !tbaa !11
  %10 = load i32, ptr %6, align 4, !tbaa !11
  %11 = icmp sle i32 %10, 1
  br i1 %11, label %12, label %15

12:                                               ; preds = %3
  %13 = load i32, ptr %5, align 4, !tbaa !11
  %14 = and i32 %13, 1
  store i32 %14, ptr %4, align 4
  br label %45

15:                                               ; preds = %3
  %16 = load i32, ptr %5, align 4, !tbaa !11
  %17 = load i32, ptr %6, align 4, !tbaa !11
  %18 = and i32 %16, %17
  %19 = icmp ne i32 %18, 0
  br i1 %19, label %26, label %20

20:                                               ; preds = %15
  %21 = load i32, ptr %5, align 4, !tbaa !11
  %22 = load i32, ptr %6, align 4, !tbaa !11
  %23 = load i32, ptr %7, align 4, !tbaa !11
  %24 = call i32 @split_radix_permutation(i32 noundef %21, i32 noundef %22, i32 noundef %23)
  %25 = mul nsw i32 %24, 2
  store i32 %25, ptr %4, align 4
  br label %45

26:                                               ; preds = %15
  %27 = load i32, ptr %6, align 4, !tbaa !11
  %28 = ashr i32 %27, 1
  store i32 %28, ptr %6, align 4, !tbaa !11
  %29 = load i32, ptr %5, align 4, !tbaa !11
  %30 = load i32, ptr %6, align 4, !tbaa !11
  %31 = load i32, ptr %7, align 4, !tbaa !11
  %32 = call i32 @split_radix_permutation(i32 noundef %29, i32 noundef %30, i32 noundef %31)
  %33 = mul nsw i32 %32, 4
  %34 = add nsw i32 %33, 1
  %35 = load i32, ptr %5, align 4, !tbaa !11
  %36 = load i32, ptr %6, align 4, !tbaa !11
  %37 = and i32 %35, %36
  %38 = icmp ne i32 %37, 0
  %39 = xor i1 %38, true
  %40 = zext i1 %39 to i32
  %41 = load i32, ptr %7, align 4, !tbaa !11
  %42 = xor i32 %40, %41
  %43 = mul nsw i32 2, %42
  %44 = sub nsw i32 %34, %43
  store i32 %44, ptr %4, align 4
  br label %45

45:                                               ; preds = %26, %20, %12
  %46 = load i32, ptr %4, align 4
  ret i32 %46
}