; Function Attrs: inlinehint nofree nosync nounwind memory(none) uwtable
define internal fastcc i32 @split_radix_permutation(i32 noundef %0, i32 noundef %1, i32 noundef %2) unnamed_addr #4 {
  %4 = ashr i32 %1, 1
  %5 = icmp slt i32 %4, 2
  br i1 %5, label %common.ret, label %7

common.ret:                                       ; preds = %3
  %6 = and i32 %0, 1
  br label %common.ret19

7:                                                ; preds = %3
  %8 = and i32 %4, %0
  %.not = icmp eq i32 %8, 0
  br i1 %.not, label %9, label %12

common.ret19:                                     ; preds = %12, %9, %common.ret
  %common.ret19.op = phi i32 [ %6, %common.ret ], [ %11, %9 ], [ %20, %12 ]
  ret i32 %common.ret19.op

9:                                                ; preds = %7
  %10 = tail call fastcc i32 @split_radix_permutation(i32 noundef %0, i32 noundef %4, i32 noundef %2)
  %11 = shl nsw i32 %10, 1
  br label %common.ret19

12:                                               ; preds = %7
  %13 = lshr i32 %4, 1
  %14 = tail call fastcc i32 @split_radix_permutation(i32 noundef %0, i32 noundef %13, i32 noundef %2)
  %15 = shl nsw i32 %14, 2
  %16 = and i32 %13, %0
  %.not17 = icmp eq i32 %16, 0
  %17 = zext i1 %.not17 to i32
  %18 = xor i32 %2, %17
  %.neg18 = mul i32 %18, -2
  %19 = or disjoint i32 %.neg18, 1
  %20 = add i32 %19, %15
  br label %common.ret19
}